target datalayout = "e-m:e-p270:32:32-p271:32:32-p272:64:64-i64:64-i128:128-f80:128-n8:16:32:64-S128"
target triple = "x86_64-pc-linux-gnu"

%struct.AVRational = type { i32, i32 }
%struct.AVFrame = type { [8 x ptr], [8 x i32], ptr, i32, i32, i32, i32, i32, %struct.AVRational, i64, i64, %struct.AVRational, i32, ptr, i32, i32, [8 x ptr], ptr, i32, ptr, i32, i32, i32, i32, i32, i32, i32, i64, ptr, i32, ptr, ptr, i64, i64, i64, i64, ptr, %struct.AVChannelLayout, i64 }
%struct.AVChannelLayout = type { i32, i32, %union.anon, ptr }
%union.anon = type { i64 }
%struct.AVBufferRef = type { ptr, ptr, i64 }

; Function Attrs: nounwind uwtable
define ptr @av_frame_get_plane_buffer(ptr noundef %0, i32 noundef %1) #0 {
  %3 = alloca ptr, align 8
  %4 = alloca ptr, align 8
  %5 = alloca i32, align 4
  %6 = alloca i64, align 8
  %7 = alloca i32, align 4
  %8 = alloca i32, align 4
  %9 = alloca i32, align 4
  %10 = alloca i32, align 4
  %11 = alloca ptr, align 8
  %12 = alloca i64, align 8
  %13 = alloca i32, align 4
  %14 = alloca ptr, align 8
  %15 = alloca i64, align 8
  store ptr %0, ptr %4, align 8, !tbaa !4
  store i32 %1, ptr %5, align 4, !tbaa !27
  call void @llvm.lifetime.start.p0(i64 8, ptr %6) #7
  call void @llvm.lifetime.start.p0(i64 4, ptr %7) #7
  %16 = load ptr, ptr %4, align 8, !tbaa !4
  %17 = getelementptr inbounds nuw %struct.AVFrame, ptr %16, i32 0, i32 5
  %18 = load i32, ptr %17, align 8, !tbaa !45
  %19 = icmp ne i32 %18, 0
  br i1 %19, label %20, label %42

20:                                               ; preds = %2
  call void @llvm.lifetime.start.p0(i64 4, ptr %8) #7
  %21 = load ptr, ptr %4, align 8, !tbaa !4
  %22 = getelementptr inbounds nuw %struct.AVFrame, ptr %21, i32 0, i32 37
  %23 = getelementptr inbounds nuw %struct.AVChannelLayout, ptr %22, i32 0, i32 1
  %24 = load i32, ptr %23, align 4, !tbaa !60
  store i32 %24, ptr %8, align 4, !tbaa !27
  %25 = load i32, ptr %8, align 4, !tbaa !27
  %26 = icmp ne i32 %25, 0
  br i1 %26, label %28, label %27

27:                                               ; preds = %20
  store ptr null, ptr %3, align 8
  store i32 1, ptr %9, align 4
  br label %39

28:                                               ; preds = %20
  %29 = load ptr, ptr %4, align 8, !tbaa !4
  %30 = getelementptr inbounds nuw %struct.AVFrame, ptr %29, i32 0, i32 6
  %31 = load i32, ptr %30, align 4, !tbaa !28
  %32 = call i32 @av_sample_fmt_is_planar(i32 noundef %31)
  %33 = icmp ne i32 %32, 0
  br i1 %33, label %34, label %36

34:                                               ; preds = %28
  %35 = load i32, ptr %8, align 4, !tbaa !27
  br label %37

36:                                               ; preds = %28
  br label %37

37:                                               ; preds = %36, %34
  %38 = phi i32 [ %35, %34 ], [ 1, %36 ]
  store i32 %38, ptr %7, align 4, !tbaa !27
  store i32 0, ptr %9, align 4
  br label %39

39:                                               ; preds = %37, %27
  call void @llvm.lifetime.end.p0(i64 4, ptr %8) #7
  %40 = load i32, ptr %9, align 4
  switch i32 %40, label %160 [
    i32 0, label %41
  ]

41:                                               ; preds = %39
  br label %43

42:                                               ; preds = %2
  store i32 4, ptr %7, align 4, !tbaa !27
  br label %43

43:                                               ; preds = %42, %41
  %44 = load i32, ptr %5, align 4, !tbaa !27
  %45 = icmp slt i32 %44, 0
  br i1 %45, label %59, label %46

46:                                               ; preds = %43
  %47 = load i32, ptr %5, align 4, !tbaa !27
  %48 = load i32, ptr %7, align 4, !tbaa !27
  %49 = icmp sge i32 %47, %48
  br i1 %49, label %59, label %50

50:                                               ; preds = %46
  %51 = load ptr, ptr %4, align 8, !tbaa !4
  %52 = getelementptr inbounds nuw %struct.AVFrame, ptr %51, i32 0, i32 2
  %53 = load ptr, ptr %52, align 8, !tbaa !29
  %54 = load i32, ptr %5, align 4, !tbaa !27
  %55 = sext i32 %54 to i64
  %56 = getelementptr inbounds ptr, ptr %53, i64 %55
  %57 = load ptr, ptr %56, align 8, !tbaa !58
  %58 = icmp ne ptr %57, null
  br i1 %58, label %60, label %59

59:                                               ; preds = %50, %46, %43
  store ptr null, ptr %3, align 8
  store i32 1, ptr %9, align 4
  br label %160

60:                                               ; preds = %50
  %61 = load ptr, ptr %4, align 8, !tbaa !4
  %62 = getelementptr inbounds nuw %struct.AVFrame, ptr %61, i32 0, i32 2
  %63 = load ptr, ptr %62, align 8, !tbaa !29
  %64 = load i32, ptr %5, align 4, !tbaa !27
  %65 = sext i32 %64 to i64
  %66 = getelementptr inbounds ptr, ptr %63, i64 %65
  %67 = load ptr, ptr %66, align 8, !tbaa !58
  %68 = ptrtoint ptr %67 to i64
  store i64 %68, ptr %6, align 8, !tbaa !50
  call void @llvm.lifetime.start.p0(i64 4, ptr %10) #7
  store i32 0, ptr %10, align 4, !tbaa !27
  br label %69

69:                                               ; preds = %112, %60
  %70 = load i32, ptr %10, align 4, !tbaa !27
  %71 = sext i32 %70 to i64
  %72 = icmp ult i64 %71, 8
  br i1 %72, label %73, label %81

73:                                               ; preds = %69
  %74 = load ptr, ptr %4, align 8, !tbaa !4
  %75 = getelementptr inbounds nuw %struct.AVFrame, ptr %74, i32 0, i32 16
  %76 = load i32, ptr %10, align 4, !tbaa !27
  %77 = sext i32 %76 to i64
  %78 = getelementptr inbounds [8 x ptr], ptr %75, i64 0, i64 %77
  %79 = load ptr, ptr %78, align 8, !tbaa !53
  %80 = icmp ne ptr %79, null
  br label %81

81:                                               ; preds = %73, %69
  %82 = phi i1 [ false, %69 ], [ %80, %73 ]
  br i1 %82, label %84, label %83

83:                                               ; preds = %81
  store i32 2, ptr %9, align 4
  br label %115

84:                                               ; preds = %81
  call void @llvm.lifetime.start.p0(i64 8, ptr %11) #7
  %85 = load ptr, ptr %4, align 8, !tbaa !4
  %86 = getelementptr inbounds nuw %struct.AVFrame, ptr %85, i32 0, i32 16
  %87 = load i32, ptr %10, align 4, !tbaa !27
  %88 = sext i32 %87 to i64
  %89 = getelementptr inbounds [8 x ptr], ptr %86, i64 0, i64 %88
  %90 = load ptr, ptr %89, align 8, !tbaa !53
  store ptr %90, ptr %11, align 8, !tbaa !53
  call void @llvm.lifetime.start.p0(i64 8, ptr %12) #7
  %91 = load ptr, ptr %11, align 8, !tbaa !53
  %92 = getelementptr inbounds nuw %struct.AVBufferRef, ptr %91, i32 0, i32 1
  %93 = load ptr, ptr %92, align 8, !tbaa !54
  %94 = ptrtoint ptr %93 to i64
  store i64 %94, ptr %12, align 8, !tbaa !50
  %95 = load i64, ptr %6, align 8, !tbaa !50
  %96 = load i64, ptr %12, align 8, !tbaa !50
  %97 = icmp uge i64 %95, %96
  br i1 %97, label %98, label %108

98:                                               ; preds = %84
  %99 = load i64, ptr %6, align 8, !tbaa !50
  %100 = load i64, ptr %12, align 8, !tbaa !50
  %101 = load ptr, ptr %11, align 8, !tbaa !53
  %102 = getelementptr inbounds nuw %struct.AVBufferRef, ptr %101, i32 0, i32 2
  %103 = load i64, ptr %102, align 8, !tbaa !103
  %104 = add i64 %100, %103
  %105 = icmp ult i64 %99, %104
  br i1 %105, label %106, label %108

106:                                              ; preds = %98
  %107 = load ptr, ptr %11, align 8, !tbaa !53
  store ptr %107, ptr %3, align 8
  store i32 1, ptr %9, align 4
  br label %109

108:                                              ; preds = %98, %84
  store i32 0, ptr %9, align 4
  br label %109

109:                                              ; preds = %108, %106
  call void @llvm.lifetime.end.p0(i64 8, ptr %12) #7
  call void @llvm.lifetime.end.p0(i64 8, ptr %11) #7
  %110 = load i32, ptr %9, align 4
  switch i32 %110, label %115 [
    i32 0, label %111
  ]

111:                                              ; preds = %109
  br label %112

112:                                              ; preds = %111
  %113 = load i32, ptr %10, align 4, !tbaa !27
  %114 = add nsw i32 %113, 1
  store i32 %114, ptr %10, align 4, !tbaa !27
  br label %69, !llvm.loop !104

115:                                              ; preds = %109, %83
  call void @llvm.lifetime.end.p0(i64 4, ptr %10) #7
  %116 = load i32, ptr %9, align 4
  switch i32 %116, label %160 [
    i32 2, label %117
  ]

117:                                              ; preds = %115
  call void @llvm.lifetime.start.p0(i64 4, ptr %13) #7
  store i32 0, ptr %13, align 4, !tbaa !27
  br label %118

118:                                              ; preds = %154, %117
  %119 = load i32, ptr %13, align 4, !tbaa !27
  %120 = load ptr, ptr %4, align 8, !tbaa !4
  %121 = getelementptr inbounds nuw %struct.AVFrame, ptr %120, i32 0, i32 18
  %122 = load i32, ptr %121, align 8, !tbaa !40
  %123 = icmp slt i32 %119, %122
  br i1 %123, label %125, label %124

124:                                              ; preds = %118
  store i32 5, ptr %9, align 4
  br label %157

125:                                              ; preds = %118
  call void @llvm.lifetime.start.p0(i64 8, ptr %14) #7
  %126 = load ptr, ptr %4, align 8, !tbaa !4
  %127 = getelementptr inbounds nuw %struct.AVFrame, ptr %126, i32 0, i32 17
  %128 = load ptr, ptr %127, align 8, !tbaa !41
  %129 = load i32, ptr %13, align 4, !tbaa !27
  %130 = sext i32 %129 to i64
  %131 = getelementptr inbounds ptr, ptr %128, i64 %130
  %132 = load ptr, ptr %131, align 8, !tbaa !53
  store ptr %132, ptr %14, align 8, !tbaa !53
  call void @llvm.lifetime.start.p0(i64 8, ptr %15) #7
  %133 = load ptr, ptr %14, align 8, !tbaa !53
  %134 = getelementptr inbounds nuw %struct.AVBufferRef, ptr %133, i32 0, i32 1
  %135 = load ptr, ptr %134, align 8, !tbaa !54
  %136 = ptrtoint ptr %135 to i64
  store i64 %136, ptr %15, align 8, !tbaa !50
  %137 = load i64, ptr %6, align 8, !tbaa !50
  %138 = load i64, ptr %15, align 8, !tbaa !50
  %139 = icmp uge i64 %137, %138
  br i1 %139, label %140, label %150

140:                                              ; preds = %125
  %141 = load i64, ptr %6, align 8, !tbaa !50
  %142 = load i64, ptr %15, align 8, !tbaa !50
  %143 = load ptr, ptr %14, align 8, !tbaa !53
  %144 = getelementptr inbounds nuw %struct.AVBufferRef, ptr %143, i32 0, i32 2
  %145 = load i64, ptr %144, align 8, !tbaa !103
  %146 = add i64 %142, %145
  %147 = icmp ult i64 %141, %146
  br i1 %147, label %148, label %150

148:                                              ; preds = %140
  %149 = load ptr, ptr %14, align 8, !tbaa !53
  store ptr %149, ptr %3, align 8
  store i32 1, ptr %9, align 4
  br label %151

150:                                              ; preds = %140, %125
  store i32 0, ptr %9, align 4
  br label %151

151:                                              ; preds = %150, %148
  call void @llvm.lifetime.end.p0(i64 8, ptr %15) #7
  call void @llvm.lifetime.end.p0(i64 8, ptr %14) #7
  %152 = load i32, ptr %9, align 4
  switch i32 %152, label %157 [
    i32 0, label %153
  ]

153:                                              ; preds = %151
  br label %154

154:                                              ; preds = %153
  %155 = load i32, ptr %13, align 4, !tbaa !27
  %156 = add nsw i32 %155, 1
  store i32 %156, ptr %13, align 4, !tbaa !27
  br label %118, !llvm.loop !105

157:                                              ; preds = %151, %124
  call void @llvm.lifetime.end.p0(i64 4, ptr %13) #7
  %158 = load i32, ptr %9, align 4
  switch i32 %158, label %160 [
    i32 5, label %159
  ]

159:                                              ; preds = %157
  store ptr null, ptr %3, align 8
  store i32 1, ptr %9, align 4
  br label %160

160:                                              ; preds = %159, %157, %115, %59, %39
  call void @llvm.lifetime.end.p0(i64 4, ptr %7) #7
  call void @llvm.lifetime.end.p0(i64 8, ptr %6) #7
  %161 = load ptr, ptr %3, align 8
  ret ptr %161
}