; Function Attrs: nounwind uwtable
define ptr @av_frame_get_plane_buffer(ptr noundef readonly captures(none) %0, i32 noundef %1) local_unnamed_addr #0 {
  %3 = getelementptr inbounds nuw i8, ptr %0, i64 112
  %4 = load i32, ptr %3, align 8, !tbaa !49
  %.not = icmp eq i32 %4, 0
  br i1 %.not, label %13, label %5

5:                                                ; preds = %2
  %6 = getelementptr inbounds nuw i8, ptr %0, i64 388
  %7 = load i32, ptr %6, align 4, !tbaa !50
  %.not63.not = icmp eq i32 %7, 0
  br i1 %.not63.not, label %.thread, label %8

8:                                                ; preds = %5
  %9 = getelementptr inbounds nuw i8, ptr %0, i64 116
  %10 = load i32, ptr %9, align 4, !tbaa !23
  %11 = tail call i32 @av_sample_fmt_is_planar(i32 noundef %10) #8
  %.not64 = icmp eq i32 %11, 0
  %12 = select i1 %.not64, i32 1, i32 %7
  br label %13

13:                                               ; preds = %8, %2
  %.147 = phi i32 [ %12, %8 ], [ 4, %2 ]
  %14 = icmp sgt i32 %1, -1
  %.not65 = icmp slt i32 %1, %.147
  %or.cond = select i1 %14, i1 %.not65, i1 false
  br i1 %or.cond, label %15, label %.thread

15:                                               ; preds = %13
  %16 = getelementptr inbounds nuw i8, ptr %0, i64 96
  %17 = load ptr, ptr %16, align 8, !tbaa !24
  %18 = zext nneg i32 %1 to i64
  %19 = getelementptr inbounds nuw ptr, ptr %17, i64 %18
  %20 = load ptr, ptr %19, align 8, !tbaa !47
  %.not66 = icmp eq ptr %20, null
  br i1 %.not66, label %.thread, label %21

21:                                               ; preds = %15
  %22 = ptrtoint ptr %20 to i64
  %23 = getelementptr inbounds nuw i8, ptr %0, i64 184
  br label %24

24:                                               ; preds = %21, %36
  %indvars.iv = phi i64 [ 0, %21 ], [ %indvars.iv.next, %36 ]
  %25 = getelementptr inbounds nuw [8 x ptr], ptr %23, i64 0, i64 %indvars.iv
  %26 = load ptr, ptr %25, align 8, !tbaa !42
  %.not67 = icmp eq ptr %26, null
  br i1 %.not67, label %.critedge, label %27

27:                                               ; preds = %24
  %28 = getelementptr inbounds nuw i8, ptr %26, i64 8
  %29 = load ptr, ptr %28, align 8, !tbaa !43
  %.not68 = icmp ult ptr %20, %29
  br i1 %.not68, label %36, label %30

30:                                               ; preds = %27
  %31 = ptrtoint ptr %29 to i64
  %32 = getelementptr inbounds nuw i8, ptr %26, i64 16
  %33 = load i64, ptr %32, align 8, !tbaa !98
  %34 = add i64 %33, %31
  %35 = icmp ugt i64 %34, %22
  br i1 %35, label %.thread, label %36

36:                                               ; preds = %27, %30
  %indvars.iv.next = add nuw nsw i64 %indvars.iv, 1
  %exitcond.not = icmp eq i64 %indvars.iv.next, 8
  br i1 %exitcond.not, label %.critedge, label %24, !llvm.loop !99

.critedge:                                        ; preds = %24, %36
  %37 = getelementptr inbounds nuw i8, ptr %0, i64 256
  %38 = load i32, ptr %37, align 8, !tbaa !30
  %.not7084 = icmp sgt i32 %38, 0
  br i1 %.not7084, label %.lr.ph, label %.thread

.lr.ph:                                           ; preds = %.critedge
  %39 = getelementptr inbounds nuw i8, ptr %0, i64 248
  %40 = load ptr, ptr %39, align 8, !tbaa !33
  %wide.trip.count = zext nneg i32 %38 to i64
  br label %41

41:                                               ; preds = %.lr.ph, %52
  %indvars.iv91 = phi i64 [ 0, %.lr.ph ], [ %indvars.iv.next92, %52 ]
  %42 = getelementptr inbounds nuw ptr, ptr %40, i64 %indvars.iv91
  %43 = load ptr, ptr %42, align 8, !tbaa !42
  %44 = getelementptr inbounds nuw i8, ptr %43, i64 8
  %45 = load ptr, ptr %44, align 8, !tbaa !43
  %.not69 = icmp ult ptr %20, %45
  br i1 %.not69, label %52, label %46

46:                                               ; preds = %41
  %47 = ptrtoint ptr %45 to i64
  %48 = getelementptr inbounds nuw i8, ptr %43, i64 16
  %49 = load i64, ptr %48, align 8, !tbaa !98
  %50 = add i64 %49, %47
  %51 = icmp ugt i64 %50, %22
  br i1 %51, label %.thread, label %52

52:                                               ; preds = %41, %46
  %indvars.iv.next92 = add nuw nsw i64 %indvars.iv91, 1
  %exitcond94.not = icmp eq i64 %indvars.iv.next92, %wide.trip.count
  br i1 %exitcond94.not, label %.thread, label %41, !llvm.loop !100

.thread:                                          ; preds = %30, %46, %52, %.critedge, %5, %13, %15
  %.1 = phi ptr [ null, %15 ], [ null, %13 ], [ null, %5 ], [ null, %.critedge ], [ %43, %46 ], [ null, %52 ], [ %26, %30 ]
  ret ptr %.1
}